target datalayout = "e-m:e-p270:32:32-p271:32:32-p272:64:64-i64:64-i128:128-f80:128-n8:16:32:64-S128"
target triple = "x86_64-pc-linux-gnu"

%struct.obdii_packet_info = type { ptr, i32, i8, i8, i8, i32, i8, i8, i8, i8, i8 }
%struct._packet_info = type { ptr, ptr, i32, i32, %struct.nstime_t, %struct.nstime_t, %struct.nstime_t, i8, ptr, ptr, ptr, ptr, %struct._address, %struct._address, %struct._address, %struct._address, %struct._address, %struct._address, i32, ptr, i8, [3 x i8], %struct.anon, i32, i32, i32, i32, ptr, i8, ptr, ptr, i16, i16, i32, i32, i16, i32, i32, ptr, ptr, ptr, i8, i8, i16, i16, i16, i32, i16, i16, ptr, ptr, ptr, ptr, ptr, i32, i32 }
%struct.nstime_t = type { i64, i32 }
%struct._address = type { i32, i32, ptr, ptr }
%struct.anon = type { i8, [3 x i8] }

@.str.363 = private unnamed_addr constant [8 x i8] c": %d %%\00", align 1

; Function Attrs: null_pointer_is_valid sspstrong uwtable
define internal zeroext i1 @dissect_obdii_common_torque(ptr noundef %0, ptr noundef %1, ptr noundef %2, i32 noundef %3) #0 {
  %5 = alloca i1, align 1
  %6 = alloca ptr, align 8
  %7 = alloca ptr, align 8
  %8 = alloca ptr, align 8
  %9 = alloca i32, align 4
  %10 = alloca i32, align 4
  store ptr %0, ptr %6, align 8
  store ptr %1, ptr %7, align 8
  store ptr %2, ptr %8, align 8
  store i32 %3, ptr %9, align 4
  %11 = load ptr, ptr %7, align 8
  %12 = getelementptr inbounds nuw %struct.obdii_packet_info, ptr %11, i32 0, i32 4
  %13 = load i8, ptr %12, align 2
  %14 = zext i8 %13 to i32
  %15 = icmp eq i32 %14, 1
  br i1 %15, label %16, label %40

16:                                               ; preds = %4
  call void @llvm.lifetime.start.p0(i64 4, ptr %10) #8
  %17 = load ptr, ptr %7, align 8
  %18 = getelementptr inbounds nuw %struct.obdii_packet_info, ptr %17, i32 0, i32 6
  %19 = load i8, ptr %18, align 4
  %20 = zext i8 %19 to i32
  %21 = sub i32 %20, 125
  store i32 %21, ptr %10, align 4
  %22 = load ptr, ptr %7, align 8
  %23 = getelementptr inbounds nuw %struct.obdii_packet_info, ptr %22, i32 0, i32 0
  %24 = load ptr, ptr %23, align 8
  %25 = getelementptr inbounds nuw %struct._packet_info, ptr %24, i32 0, i32 1
  %26 = load ptr, ptr %25, align 8
  %27 = load i32, ptr %10, align 4
  call void (ptr, i32, ptr, ...) @col_append_fstr(ptr noundef %26, i32 noundef 25, ptr noundef @.str.363, i32 noundef %27)
  %28 = load ptr, ptr %8, align 8
  %29 = load i32, ptr %9, align 4
  %30 = load ptr, ptr %6, align 8
  %31 = load ptr, ptr %7, align 8
  %32 = getelementptr inbounds nuw %struct.obdii_packet_info, ptr %31, i32 0, i32 5
  %33 = load i32, ptr %32, align 8
  %34 = load ptr, ptr %7, align 8
  %35 = getelementptr inbounds nuw %struct.obdii_packet_info, ptr %34, i32 0, i32 4
  %36 = load i8, ptr %35, align 2
  %37 = zext i8 %36 to i32
  %38 = load i32, ptr %10, align 4
  %39 = call ptr @proto_tree_add_int(ptr noundef %28, i32 noundef %29, ptr noundef %30, i32 noundef %33, i32 noundef %37, i32 noundef %38)
  store i1 true, ptr %5, align 1
  call void @llvm.lifetime.end.p0(i64 4, ptr %10) #8
  br label %41

40:                                               ; preds = %4
  store i1 false, ptr %5, align 1
  br label %41

41:                                               ; preds = %40, %16
  %42 = load i1, ptr %5, align 1
  ret i1 %42
}